; Function Attrs: mustprogress uwtable
define hidden void @_ZN6Assimp3FBX4Node10BeginAsciiERSoi(ptr noundef nonnull readonly align 8 captures(none) dereferenceable(112) %0, ptr noundef nonnull align 8 dereferenceable(8) %1, i32 noundef %2) local_unnamed_addr #3 align 2 {
  %4 = alloca i8, align 1
  %5 = alloca i8, align 1
  call void @llvm.lifetime.start.p0(i64 1, ptr nonnull %5)
  store i8 10, ptr %5, align 1
  %6 = load ptr, ptr %1, align 8
  %7 = getelementptr i8, ptr %6, i64 -24
  %8 = load i64, ptr %7, align 8
  %9 = getelementptr inbounds i8, ptr %1, i64 %8
  %10 = getelementptr inbounds nuw i8, ptr %9, i64 16
  %11 = load i64, ptr %10, align 8
  %.not.i = icmp eq i64 %11, 0
  br i1 %.not.i, label %14, label %12

12:                                               ; preds = %3
  %13 = call noundef nonnull align 8 dereferenceable(8) ptr @_ZSt16__ostream_insertIcSt11char_traitsIcEERSt13basic_ostreamIT_T0_ES6_PKS3_l(ptr noundef nonnull align 8 dereferenceable(8) %1, ptr noundef nonnull %5, i64 noundef 1)
  br label %_ZStlsISt11char_traitsIcEERSt13basic_ostreamIcT_ES5_c.exit

14:                                               ; preds = %3
  %15 = tail call noundef nonnull align 8 dereferenceable(8) ptr @_ZNSo3putEc(ptr noundef nonnull align 8 dereferenceable(8) %1, i8 noundef signext 10)
  br label %_ZStlsISt11char_traitsIcEERSt13basic_ostreamIcT_ES5_c.exit

_ZStlsISt11char_traitsIcEERSt13basic_ostreamIcT_ES5_c.exit: ; preds = %12, %14
  call void @llvm.lifetime.end.p0(i64 1, ptr nonnull %5)
  %invariant.gep = getelementptr i8, ptr %1, i64 16
  %16 = icmp sgt i32 %2, 0
  br i1 %16, label %.lr.ph, label %._crit_edge

._crit_edge:                                      ; preds = %_ZStlsISt11char_traitsIcEERSt13basic_ostreamIcT_ES5_c.exit8, %_ZStlsISt11char_traitsIcEERSt13basic_ostreamIcT_ES5_c.exit
  %17 = load ptr, ptr %0, align 8
  %18 = getelementptr inbounds nuw i8, ptr %0, i64 8
  %19 = load i64, ptr %18, align 8
  %20 = call noundef nonnull align 8 dereferenceable(8) ptr @_ZSt16__ostream_insertIcSt11char_traitsIcEERSt13basic_ostreamIT_T0_ES6_PKS3_l(ptr noundef nonnull align 8 dereferenceable(8) %1, ptr noundef %17, i64 noundef %19)
  %21 = call noundef nonnull align 8 dereferenceable(8) ptr @_ZSt16__ostream_insertIcSt11char_traitsIcEERSt13basic_ostreamIT_T0_ES6_PKS3_l(ptr noundef nonnull align 8 dereferenceable(8) %20, ptr noundef nonnull @.str.19, i64 noundef 2)
  ret void

.lr.ph:                                           ; preds = %_ZStlsISt11char_traitsIcEERSt13basic_ostreamIcT_ES5_c.exit, %_ZStlsISt11char_traitsIcEERSt13basic_ostreamIcT_ES5_c.exit8
  %.09 = phi i32 [ %30, %_ZStlsISt11char_traitsIcEERSt13basic_ostreamIcT_ES5_c.exit8 ], [ 0, %_ZStlsISt11char_traitsIcEERSt13basic_ostreamIcT_ES5_c.exit ]
  call void @llvm.lifetime.start.p0(i64 1, ptr nonnull %4)
  store i8 9, ptr %4, align 1
  %22 = load ptr, ptr %1, align 8
  %23 = getelementptr i8, ptr %22, i64 -24
  %24 = load i64, ptr %23, align 8
  %gep = getelementptr i8, ptr %invariant.gep, i64 %24
  %25 = load i64, ptr %gep, align 8
  %.not.i6 = icmp eq i64 %25, 0
  br i1 %.not.i6, label %28, label %26

26:                                               ; preds = %.lr.ph
  %27 = call noundef nonnull align 8 dereferenceable(8) ptr @_ZSt16__ostream_insertIcSt11char_traitsIcEERSt13basic_ostreamIT_T0_ES6_PKS3_l(ptr noundef nonnull align 8 dereferenceable(8) %1, ptr noundef nonnull %4, i64 noundef 1)
  br label %_ZStlsISt11char_traitsIcEERSt13basic_ostreamIcT_ES5_c.exit8

28:                                               ; preds = %.lr.ph
  %29 = call noundef nonnull align 8 dereferenceable(8) ptr @_ZNSo3putEc(ptr noundef nonnull align 8 dereferenceable(8) %1, i8 noundef signext 9)
  br label %_ZStlsISt11char_traitsIcEERSt13basic_ostreamIcT_ES5_c.exit8

_ZStlsISt11char_traitsIcEERSt13basic_ostreamIcT_ES5_c.exit8: ; preds = %26, %28
  call void @llvm.lifetime.end.p0(i64 1, ptr nonnull %4)
  %30 = add nuw nsw i32 %.09, 1
  %exitcond.not = icmp eq i32 %30, %2
  br i1 %exitcond.not, label %._crit_edge, label %.lr.ph, !llvm.loop !31
}